; Function Attrs: nounwind sspstrong uwtable
define dso_local void @v9fs_string_read(ptr noundef captures(none) %0, ptr noundef writeonly captures(address_is_null) %1, ptr noundef captures(address_is_null) %2) local_unnamed_addr #1 {
  %4 = alloca i16, align 2
  call void @llvm.lifetime.start.p0(i64 2, ptr nonnull %4) #14
  store i16 0, ptr %4, align 2, !annotation !4
  %5 = load ptr, ptr %0, align 8
  %6 = getelementptr inbounds nuw i8, ptr %0, i64 40
  %7 = load i64, ptr %6, align 8
  %8 = getelementptr inbounds nuw i8, ptr %0, i64 56
  %9 = load i64, ptr %8, align 8
  %10 = add i64 %9, %7
  call void @qtest_memread(ptr noundef %5, i64 noundef %10, ptr noundef nonnull %4, i64 noundef 2) #14
  %11 = load i64, ptr %8, align 8
  %12 = add i64 %11, 2
  store i64 %12, ptr %8, align 8
  %.not = icmp eq ptr %1, null
  br i1 %.not, label %15, label %13

13:                                               ; preds = %3
  %14 = load i16, ptr %4, align 2
  store i16 %14, ptr %1, align 2
  br label %15

15:                                               ; preds = %13, %3
  %.not10 = icmp eq ptr %2, null
  %16 = load i16, ptr %4, align 2
  %17 = zext i16 %16 to i64
  br i1 %.not10, label %33, label %18

18:                                               ; preds = %15
  %19 = add nuw nsw i64 %17, 1
  %20 = call noalias ptr @g_malloc(i64 noundef %19) #16
  store ptr %20, ptr %2, align 8
  %21 = load i16, ptr %4, align 2
  %22 = zext i16 %21 to i64
  %23 = load ptr, ptr %0, align 8
  %24 = load i64, ptr %6, align 8
  %25 = load i64, ptr %8, align 8
  %26 = add i64 %25, %24
  call void @qtest_memread(ptr noundef %23, i64 noundef %26, ptr noundef %20, i64 noundef %22) #14
  %27 = load i64, ptr %8, align 8
  %28 = add i64 %27, %22
  store i64 %28, ptr %8, align 8
  %29 = load ptr, ptr %2, align 8
  %30 = load i16, ptr %4, align 2
  %31 = zext i16 %30 to i64
  %32 = getelementptr inbounds nuw i8, ptr %29, i64 %31
  store i8 0, ptr %32, align 1
  br label %36

33:                                               ; preds = %15
  %34 = load i64, ptr %8, align 8
  %35 = add i64 %34, %17
  store i64 %35, ptr %8, align 8
  br label %36

36:                                               ; preds = %33, %18
  call void @llvm.lifetime.end.p0(i64 2, ptr nonnull %4) #14
  ret void
}